target datalayout = "e-m:e-p270:32:32-p271:32:32-p272:64:64-i64:64-i128:128-f80:128-n8:16:32:64-S128"
target triple = "x86_64-pc-linux-gnu"

%struct.VuDev = type { i32, i32, ptr, ptr, %struct.VuDevInflightInfo, i32, %union.pthread_mutex_t, i32, i64, ptr, i64, i64, i8, i16, ptr, ptr, ptr, ptr, ptr, i32, i8 }
%struct.VuDevInflightInfo = type { i32, ptr, i64 }
%union.pthread_mutex_t = type { %struct.__pthread_mutex_s }
%struct.__pthread_mutex_s = type { i32, i32, i32, i32, i32, i16, i16, %struct.__pthread_internal_list }
%struct.__pthread_internal_list = type { ptr, ptr }
%struct.VhostUserMsg = type <{ i32, i32, i32, %union.anon, [8 x i32], i32, ptr }>
%union.anon = type { %struct.VhostUserMemory, [8 x i8] }
%struct.VhostUserMemory = type { i32, i32, [8 x %struct.VhostUserMemoryRegion] }
%struct.VhostUserMemoryRegion = type { i64, i64, i64, i64 }
%struct.VhostUserShared = type { [16 x i8] }

@.str.40 = private unnamed_addr constant [50 x i8] c"../qemu/subprojects/libvhost-user/libvhost-user.c\00", align 1
@.str.52 = private unnamed_addr constant [10 x i8] c"fbit < 64\00", align 1
@__PRETTY_FUNCTION__.has_feature = private unnamed_addr constant [42 x i8] c"_Bool has_feature(uint64_t, unsigned int)\00", align 1

; Function Attrs: inlinehint nounwind uwtable
define internal zeroext i1 @has_feature(i64 noundef %0, i32 noundef %1) #3 {
  %3 = alloca i64, align 8
  %4 = alloca i32, align 4
  store i64 %0, ptr %3, align 8
  store i32 %1, ptr %4, align 4
  %5 = load i32, ptr %4, align 4
  %6 = icmp ult i32 %5, 64
  br i1 %6, label %7, label %8

7:                                                ; preds = %2
  br label %9

8:                                                ; preds = %2
  call void @__assert_fail(ptr noundef @.str.52, ptr noundef @.str.40, i32 noundef 109, ptr noundef @__PRETTY_FUNCTION__.has_feature) #15
  unreachable

9:                                                ; preds = %7
  %10 = load i64, ptr %3, align 8
  %11 = load i32, ptr %4, align 4
  %12 = zext i32 %11 to i64
  %13 = shl i64 1, %12
  %14 = and i64 %10, %13
  %15 = icmp ne i64 %14, 0
  %16 = xor i1 %15, true
  %17 = xor i1 %16, true
  ret i1 %17
}

; Function Attrs: nounwind uwtable
define internal zeroext i1 @vu_send_message(ptr noundef %0, ptr noundef %1) #0 {
  %3 = alloca ptr, align 8
  %4 = alloca ptr, align 8
  %5 = alloca i8, align 1
  store ptr %0, ptr %3, align 8
  store ptr %1, ptr %4, align 8
  call void @llvm.lifetime.start.p0(i64 1, ptr %5) #13
  store i8 0, ptr %5, align 1
  %6 = load ptr, ptr %3, align 8
  %7 = getelementptr inbounds nuw %struct.VuDev, ptr %6, i32 0, i32 6
  %8 = call i32 @pthread_mutex_lock(ptr noundef %7) #13
  %9 = load ptr, ptr %3, align 8
  %10 = load ptr, ptr %3, align 8
  %11 = getelementptr inbounds nuw %struct.VuDev, ptr %10, i32 0, i32 7
  %12 = load i32, ptr %11, align 8
  %13 = load ptr, ptr %4, align 8
  %14 = call zeroext i1 @vu_message_write(ptr noundef %9, i32 noundef %12, ptr noundef %13)
  br i1 %14, label %16, label %15

15:                                               ; preds = %2
  br label %17

16:                                               ; preds = %2
  store i8 1, ptr %5, align 1
  br label %17

17:                                               ; preds = %16, %15
  %18 = load ptr, ptr %3, align 8
  %19 = getelementptr inbounds nuw %struct.VuDev, ptr %18, i32 0, i32 6
  %20 = call i32 @pthread_mutex_unlock(ptr noundef %19) #13
  %21 = load i8, ptr %5, align 1, !range !5, !noundef !6
  %22 = trunc i8 %21 to i1
  call void @llvm.lifetime.end.p0(i64 1, ptr %5) #13
  ret i1 %22
}

; Function Attrs: inlinehint nounwind uwtable
define internal zeroext i1 @vu_has_protocol_feature(ptr noundef %0, i32 noundef %1) #3 {
  %3 = alloca ptr, align 8
  %4 = alloca i32, align 4
  store ptr %0, ptr %3, align 8
  store i32 %1, ptr %4, align 4
  %5 = load ptr, ptr %3, align 8
  %6 = getelementptr inbounds nuw %struct.VuDev, ptr %5, i32 0, i32 11
  %7 = load i64, ptr %6, align 8
  %8 = load i32, ptr %4, align 4
  %9 = call zeroext i1 @has_feature(i64 noundef %7, i32 noundef %8)
  ret i1 %9
}

; Function Attrs: nounwind uwtable
define dso_local zeroext i1 @vu_rm_shared_object(ptr noundef %0, ptr noundef %1) #0 {
  %3 = alloca i1, align 1
  %4 = alloca ptr, align 8
  %5 = alloca ptr, align 8
  %6 = alloca %struct.VhostUserMsg, align 1
  %7 = alloca i32, align 4
  store ptr %0, ptr %4, align 8
  store ptr %1, ptr %5, align 8
  call void @llvm.lifetime.start.p0(i64 328, ptr %6) #13
  call void @llvm.memset.p0.i64(ptr align 1 %6, i8 0, i64 328, i1 false)
  %8 = getelementptr inbounds %struct.VhostUserMsg, ptr %6, i32 0, i32 0
  store i32 7, ptr %8, align 1
  %9 = getelementptr inbounds %struct.VhostUserMsg, ptr %6, i32 0, i32 1
  store i32 1, ptr %9, align 1
  %10 = getelementptr inbounds %struct.VhostUserMsg, ptr %6, i32 0, i32 2
  store i32 16, ptr %10, align 1
  %11 = getelementptr inbounds nuw %struct.VhostUserMsg, ptr %6, i32 0, i32 3
  %12 = getelementptr inbounds nuw %struct.VhostUserShared, ptr %11, i32 0, i32 0
  %13 = getelementptr inbounds [16 x i8], ptr %12, i64 0, i64 0
  %14 = load ptr, ptr %5, align 8
  call void @llvm.memcpy.p0.p0.i64(ptr align 1 %13, ptr align 1 %14, i64 16, i1 false)
  %15 = load ptr, ptr %4, align 8
  %16 = call zeroext i1 @vu_has_protocol_feature(ptr noundef %15, i32 noundef 18)
  br i1 %16, label %18, label %17

17:                                               ; preds = %2
  store i1 false, ptr %3, align 1
  store i32 1, ptr %7, align 4
  br label %21

18:                                               ; preds = %2
  %19 = load ptr, ptr %4, align 8
  %20 = call zeroext i1 @vu_send_message(ptr noundef %19, ptr noundef %6)
  store i1 %20, ptr %3, align 1
  store i32 1, ptr %7, align 4
  br label %21

21:                                               ; preds = %18, %17
  call void @llvm.lifetime.end.p0(i64 328, ptr %6) #13
  %22 = load i1, ptr %3, align 1
  ret i1 %22
}